; Function Attrs: mustprogress nounwind uwtable
define hidden void @_ZN7ZTracer17send_thread_debugEPKcRK11TimeInstantI30CompositeCounterRepresentation29CompositeElapsedCounterSourceES7_(ptr noundef %0, ptr nocapture noundef nonnull readonly align 8 dereferenceable(16) %1, ptr nocapture noundef nonnull readonly align 8 dereferenceable(16) %2) local_unnamed_addr #3 align 2 {
  %4 = alloca %class.EventZThreadDebug, align 8
  %5 = getelementptr inbounds i8, ptr %4, i64 16
  store i8 1, ptr %5, align 8
  %6 = getelementptr inbounds i8, ptr %4, i64 17
  store i8 0, ptr %6, align 1
  %7 = getelementptr inbounds i8, ptr %4, i64 18
  store i8 0, ptr %7, align 2
  %8 = load i8, ptr getelementptr inbounds (i8, ptr @_ZN15JfrEventSetting19_jvm_event_settingsE, i64 161), align 1
  %.not.i = icmp eq i8 %8, 0
  br i1 %.not.i, label %_ZN8JfrEventI17EventZThreadDebugE13should_commitEv.exit, label %9

9:                                                ; preds = %3
  %10 = tail call noundef i32 @_ZN4GCId20current_or_undefinedEv() #11
  %11 = getelementptr inbounds i8, ptr %4, i64 20
  store i32 %10, ptr %11, align 4
  %12 = getelementptr inbounds i8, ptr %4, i64 24
  store ptr %0, ptr %12, align 8
  %13 = load i8, ptr @_ZN7JfrTime11_ft_enabledE, align 1
  %14 = trunc i8 %13 to i1
  %15 = getelementptr inbounds i8, ptr %1, i64 8
  %16 = load i64, ptr %15, align 8
  %17 = load i64, ptr %1, align 8
  %18 = select i1 %14, i64 %16, i64 %17
  store i64 %18, ptr %4, align 8
  %19 = getelementptr inbounds i8, ptr %2, i64 8
  %20 = load i64, ptr %19, align 8
  %21 = load i64, ptr %2, align 8
  %22 = select i1 %14, i64 %20, i64 %21
  %23 = getelementptr inbounds i8, ptr %4, i64 8
  store i64 %22, ptr %23, align 8
  call void @_ZN8JfrEventI17EventZThreadDebugE6commitEv(ptr noundef nonnull align 8 dereferenceable(19) %4)
  br label %_ZN8JfrEventI17EventZThreadDebugE13should_commitEv.exit

_ZN8JfrEventI17EventZThreadDebugE13should_commitEv.exit: ; preds = %3, %9
  ret void
}